; Function Attrs: nounwind uwtable
define ptr @l_Array_forIn_x27Unsafe_loop___at___private_Lean_Meta_Tactic_Grind_Arith_Cutsat_EqCnstr_0__Lean_Meta_Grind_Arith_Cutsat_DiseqCnstr_findLe___spec__3___boxed(ptr noundef readonly captures(none) %0) local_unnamed_addr #1 {
  %2 = load ptr, ptr %0, align 8, !tbaa !9
  %3 = getelementptr inbounds nuw i8, ptr %0, i64 8
  %4 = load ptr, ptr %3, align 8, !tbaa !9
  %5 = getelementptr inbounds nuw i8, ptr %0, i64 16
  %6 = load ptr, ptr %5, align 8, !tbaa !9
  %7 = getelementptr inbounds nuw i8, ptr %0, i64 24
  %8 = load ptr, ptr %7, align 8, !tbaa !9
  %9 = getelementptr inbounds nuw i8, ptr %0, i64 32
  %10 = load ptr, ptr %9, align 8, !tbaa !9
  %11 = getelementptr inbounds nuw i8, ptr %0, i64 40
  %12 = load ptr, ptr %11, align 8, !tbaa !9
  %13 = getelementptr inbounds nuw i8, ptr %0, i64 48
  %14 = load ptr, ptr %13, align 8, !tbaa !9
  %15 = getelementptr inbounds nuw i8, ptr %0, i64 56
  %16 = load ptr, ptr %15, align 8, !tbaa !9
  %17 = getelementptr inbounds nuw i8, ptr %0, i64 64
  %18 = load ptr, ptr %17, align 8, !tbaa !9
  %19 = getelementptr inbounds nuw i8, ptr %0, i64 72
  %20 = load ptr, ptr %19, align 8, !tbaa !9
  %21 = getelementptr inbounds nuw i8, ptr %0, i64 80
  %22 = load ptr, ptr %21, align 8, !tbaa !9
  %23 = getelementptr inbounds nuw i8, ptr %0, i64 88
  %24 = load ptr, ptr %23, align 8, !tbaa !9
  %25 = getelementptr inbounds nuw i8, ptr %0, i64 96
  %26 = load ptr, ptr %25, align 8, !tbaa !9
  %27 = getelementptr inbounds nuw i8, ptr %0, i64 104
  %28 = load ptr, ptr %27, align 8, !tbaa !9
  %29 = getelementptr inbounds nuw i8, ptr %0, i64 112
  %30 = load ptr, ptr %29, align 8, !tbaa !9
  %31 = getelementptr inbounds nuw i8, ptr %0, i64 120
  %32 = load ptr, ptr %31, align 8, !tbaa !9
  %33 = getelementptr inbounds nuw i8, ptr %0, i64 128
  %34 = load ptr, ptr %33, align 8, !tbaa !9
  %35 = getelementptr inbounds nuw i8, ptr %0, i64 136
  %36 = load ptr, ptr %35, align 8, !tbaa !9
  %37 = getelementptr inbounds nuw i8, ptr %0, i64 144
  %38 = load ptr, ptr %37, align 8, !tbaa !9
  %39 = getelementptr inbounds nuw i8, ptr %0, i64 152
  %40 = load ptr, ptr %39, align 8, !tbaa !9
  %41 = getelementptr i8, ptr %18, i64 8
  %.val = load i64, ptr %41, align 8, !tbaa !13
  %42 = ptrtoint ptr %18 to i64
  %43 = and i64 %42, 1
  %.not = icmp eq i64 %43, 0
  br i1 %.not, label %44, label %lean_dec.exit54

44:                                               ; preds = %1
  %45 = load i32, ptr %18, align 4, !tbaa !4
  %46 = icmp sgt i32 %45, 1
  br i1 %46, label %47, label %49, !prof !11

47:                                               ; preds = %44
  %48 = add nsw i32 %45, -1
  store i32 %48, ptr %18, align 4, !tbaa !4
  br label %lean_dec.exit54

49:                                               ; preds = %44
  %.not.i = icmp eq i32 %45, 0
  br i1 %.not.i, label %lean_dec.exit54, label %50

50:                                               ; preds = %49
  tail call void @lean_dec_ref_cold(ptr noundef nonnull %18) #7
  br label %lean_dec.exit54

lean_dec.exit54:                                  ; preds = %50, %49, %47, %1
  %51 = getelementptr i8, ptr %20, i64 8
  %.val67 = load i64, ptr %51, align 8, !tbaa !13
  %52 = ptrtoint ptr %20 to i64
  %53 = and i64 %52, 1
  %.not68 = icmp eq i64 %53, 0
  br i1 %.not68, label %54, label %lean_dec.exit53

54:                                               ; preds = %lean_dec.exit54
  %55 = load i32, ptr %20, align 4, !tbaa !4
  %56 = icmp sgt i32 %55, 1
  br i1 %56, label %57, label %59, !prof !11

57:                                               ; preds = %54
  %58 = add nsw i32 %55, -1
  store i32 %58, ptr %20, align 4, !tbaa !4
  br label %lean_dec.exit53

59:                                               ; preds = %54
  %.not.i55 = icmp eq i32 %55, 0
  br i1 %.not.i55, label %lean_dec.exit53, label %60

60:                                               ; preds = %59
  tail call void @lean_dec_ref_cold(ptr noundef nonnull %20) #7
  br label %lean_dec.exit53

lean_dec.exit53:                                  ; preds = %60, %59, %57, %lean_dec.exit54
  %61 = tail call ptr @l_Array_forIn_x27Unsafe_loop___at___private_Lean_Meta_Tactic_Grind_Arith_Cutsat_EqCnstr_0__Lean_Meta_Grind_Arith_Cutsat_DiseqCnstr_findLe___spec__3(ptr noundef %2, ptr noundef %4, ptr noundef %6, ptr noundef %8, ptr poison, ptr poison, ptr noundef %14, ptr noundef %16, i64 noundef %.val, i64 noundef %.val67, ptr noundef %22, ptr noundef %24, ptr noundef %26, ptr noundef %28, ptr noundef %30, ptr noundef %32, ptr noundef %34, ptr noundef %36, ptr noundef %38, ptr noundef %40)
  %62 = ptrtoint ptr %16 to i64
  %63 = and i64 %62, 1
  %.not69 = icmp eq i64 %63, 0
  br i1 %.not69, label %64, label %lean_dec.exit52

64:                                               ; preds = %lean_dec.exit53
  %65 = load i32, ptr %16, align 4, !tbaa !4
  %66 = icmp sgt i32 %65, 1
  br i1 %66, label %67, label %69, !prof !11

67:                                               ; preds = %64
  %68 = add nsw i32 %65, -1
  store i32 %68, ptr %16, align 4, !tbaa !4
  br label %lean_dec.exit52

69:                                               ; preds = %64
  %.not.i57 = icmp eq i32 %65, 0
  br i1 %.not.i57, label %lean_dec.exit52, label %70

70:                                               ; preds = %69
  tail call void @lean_dec_ref_cold(ptr noundef nonnull %16) #7
  br label %lean_dec.exit52

lean_dec.exit52:                                  ; preds = %70, %69, %67, %lean_dec.exit53
  %71 = ptrtoint ptr %12 to i64
  %72 = and i64 %71, 1
  %.not70 = icmp eq i64 %72, 0
  br i1 %.not70, label %73, label %lean_dec.exit51

73:                                               ; preds = %lean_dec.exit52
  %74 = load i32, ptr %12, align 4, !tbaa !4
  %75 = icmp sgt i32 %74, 1
  br i1 %75, label %76, label %78, !prof !11

76:                                               ; preds = %73
  %77 = add nsw i32 %74, -1
  store i32 %77, ptr %12, align 4, !tbaa !4
  br label %lean_dec.exit51

78:                                               ; preds = %73
  %.not.i59 = icmp eq i32 %74, 0
  br i1 %.not.i59, label %lean_dec.exit51, label %79

79:                                               ; preds = %78
  tail call void @lean_dec_ref_cold(ptr noundef nonnull %12) #7
  br label %lean_dec.exit51

lean_dec.exit51:                                  ; preds = %79, %78, %76, %lean_dec.exit52
  %80 = ptrtoint ptr %10 to i64
  %81 = and i64 %80, 1
  %.not71 = icmp eq i64 %81, 0
  br i1 %.not71, label %82, label %lean_dec.exit50

82:                                               ; preds = %lean_dec.exit51
  %83 = load i32, ptr %10, align 4, !tbaa !4
  %84 = icmp sgt i32 %83, 1
  br i1 %84, label %85, label %87, !prof !11

85:                                               ; preds = %82
  %86 = add nsw i32 %83, -1
  store i32 %86, ptr %10, align 4, !tbaa !4
  br label %lean_dec.exit50

87:                                               ; preds = %82
  %.not.i61 = icmp eq i32 %83, 0
  br i1 %.not.i61, label %lean_dec.exit50, label %88

88:                                               ; preds = %87
  tail call void @lean_dec_ref_cold(ptr noundef nonnull %10) #7
  br label %lean_dec.exit50

lean_dec.exit50:                                  ; preds = %88, %87, %85, %lean_dec.exit51
  %89 = ptrtoint ptr %8 to i64
  %90 = and i64 %89, 1
  %.not72 = icmp eq i64 %90, 0
  br i1 %.not72, label %91, label %lean_dec.exit49

91:                                               ; preds = %lean_dec.exit50
  %92 = load i32, ptr %8, align 4, !tbaa !4
  %93 = icmp sgt i32 %92, 1
  br i1 %93, label %94, label %96, !prof !11

94:                                               ; preds = %91
  %95 = add nsw i32 %92, -1
  store i32 %95, ptr %8, align 4, !tbaa !4
  br label %lean_dec.exit49

96:                                               ; preds = %91
  %.not.i63 = icmp eq i32 %92, 0
  br i1 %.not.i63, label %lean_dec.exit49, label %97

97:                                               ; preds = %96
  tail call void @lean_dec_ref_cold(ptr noundef nonnull %8) #7
  br label %lean_dec.exit49

lean_dec.exit49:                                  ; preds = %97, %96, %94, %lean_dec.exit50
  %98 = ptrtoint ptr %4 to i64
  %99 = and i64 %98, 1
  %.not73 = icmp eq i64 %99, 0
  br i1 %.not73, label %100, label %lean_dec.exit

100:                                              ; preds = %lean_dec.exit49
  %101 = load i32, ptr %4, align 4, !tbaa !4
  %102 = icmp sgt i32 %101, 1
  br i1 %102, label %103, label %105, !prof !11

103:                                              ; preds = %100
  %104 = add nsw i32 %101, -1
  store i32 %104, ptr %4, align 4, !tbaa !4
  br label %lean_dec.exit

105:                                              ; preds = %100
  %.not.i65 = icmp eq i32 %101, 0
  br i1 %.not.i65, label %lean_dec.exit, label %106

106:                                              ; preds = %105
  tail call void @lean_dec_ref_cold(ptr noundef nonnull %4) #7
  br label %lean_dec.exit

lean_dec.exit:                                    ; preds = %106, %105, %103, %lean_dec.exit49
  ret ptr %61
}